; Function Attrs: nofree norecurse nosync nounwind memory(readwrite, inaccessiblemem: none) uwtable
define void @stbtt_GetGlyphBitmapBox(ptr noundef readonly captures(none) %0, i32 noundef %1, float noundef %2, float noundef %3, ptr noundef writeonly captures(address_is_null) %4, ptr noundef writeonly captures(address_is_null) %5, ptr noundef writeonly captures(address_is_null) %6, ptr noundef writeonly captures(address_is_null) %7) local_unnamed_addr #13 {
  %9 = alloca i32, align 4
  %10 = alloca i32, align 4
  %11 = alloca i32, align 4
  %12 = alloca i32, align 4
  call void @llvm.lifetime.start.p0(i64 4, ptr nonnull %9) #32
  store i32 0, ptr %9, align 4, !tbaa !17
  call void @llvm.lifetime.start.p0(i64 4, ptr nonnull %10) #32
  store i32 0, ptr %10, align 4, !tbaa !17
  call void @llvm.lifetime.start.p0(i64 4, ptr nonnull %11) #32
  call void @llvm.lifetime.start.p0(i64 4, ptr nonnull %12) #32
  %13 = call i32 @stbtt_GetGlyphBox(ptr noundef readonly %0, i32 noundef %1, ptr noundef nonnull %9, ptr noundef nonnull %10, ptr noundef nonnull %11, ptr noundef nonnull %12)
  %.not.i = icmp eq i32 %13, 0
  %.not31.i = icmp eq ptr %4, null
  br i1 %.not.i, label %14, label %21

14:                                               ; preds = %8
  br i1 %.not31.i, label %16, label %15

15:                                               ; preds = %14
  store i32 0, ptr %4, align 4, !tbaa !17
  br label %16

16:                                               ; preds = %15, %14
  %.not32.i = icmp eq ptr %5, null
  br i1 %.not32.i, label %18, label %17

17:                                               ; preds = %16
  store i32 0, ptr %5, align 4, !tbaa !17
  br label %18

18:                                               ; preds = %17, %16
  %.not33.i = icmp eq ptr %6, null
  br i1 %.not33.i, label %20, label %19

19:                                               ; preds = %18
  store i32 0, ptr %6, align 4, !tbaa !17
  br label %20

20:                                               ; preds = %19, %18
  %.not34.i = icmp eq ptr %7, null
  br i1 %.not34.i, label %stbtt_GetGlyphBitmapBoxSubpixel.exit, label %.sink.split.i

21:                                               ; preds = %8
  br i1 %.not31.i, label %28, label %22

22:                                               ; preds = %21
  %23 = load i32, ptr %9, align 4, !tbaa !17
  %24 = sitofp i32 %23 to float
  %25 = call float @llvm.fmuladd.f32(float %24, float %2, float 0.000000e+00)
  %26 = call float @llvm.floor.f32(float %25)
  %27 = fptosi float %26 to i32
  store i32 %27, ptr %4, align 4, !tbaa !17
  br label %28

28:                                               ; preds = %22, %21
  %.not36.i = icmp eq ptr %5, null
  br i1 %.not36.i, label %36, label %29

29:                                               ; preds = %28
  %30 = load i32, ptr %12, align 4, !tbaa !17
  %31 = sub nsw i32 0, %30
  %32 = sitofp i32 %31 to float
  %33 = call float @llvm.fmuladd.f32(float %32, float %3, float 0.000000e+00)
  %34 = call float @llvm.floor.f32(float %33)
  %35 = fptosi float %34 to i32
  store i32 %35, ptr %5, align 4, !tbaa !17
  br label %36

36:                                               ; preds = %29, %28
  %.not37.i = icmp eq ptr %6, null
  br i1 %.not37.i, label %43, label %37

37:                                               ; preds = %36
  %38 = load i32, ptr %11, align 4, !tbaa !17
  %39 = sitofp i32 %38 to float
  %40 = call float @llvm.fmuladd.f32(float %39, float %2, float 0.000000e+00)
  %41 = call float @llvm.ceil.f32(float %40)
  %42 = fptosi float %41 to i32
  store i32 %42, ptr %6, align 4, !tbaa !17
  br label %43

43:                                               ; preds = %37, %36
  %.not38.i = icmp eq ptr %7, null
  br i1 %.not38.i, label %stbtt_GetGlyphBitmapBoxSubpixel.exit, label %44

44:                                               ; preds = %43
  %45 = load i32, ptr %10, align 4, !tbaa !17
  %46 = sub nsw i32 0, %45
  %47 = sitofp i32 %46 to float
  %48 = call float @llvm.fmuladd.f32(float %47, float %3, float 0.000000e+00)
  %49 = call float @llvm.ceil.f32(float %48)
  %50 = fptosi float %49 to i32
  br label %.sink.split.i

.sink.split.i:                                    ; preds = %44, %20
  %.sink.i = phi i32 [ %50, %44 ], [ 0, %20 ]
  store i32 %.sink.i, ptr %7, align 4, !tbaa !17
  br label %stbtt_GetGlyphBitmapBoxSubpixel.exit

stbtt_GetGlyphBitmapBoxSubpixel.exit:             ; preds = %20, %43, %.sink.split.i
  call void @llvm.lifetime.end.p0(i64 4, ptr nonnull %12) #32
  call void @llvm.lifetime.end.p0(i64 4, ptr nonnull %11) #32
  call void @llvm.lifetime.end.p0(i64 4, ptr nonnull %10) #32
  call void @llvm.lifetime.end.p0(i64 4, ptr nonnull %9) #32
  ret void
}